; Function Attrs: mustprogress uwtable
define internal fastcc void @_ZN32pxrInternal_v0_24__pxrReserved__L16Sdf_WriteVariantERKNS_14SdfVariantSpecERNS_14Sdf_TextOutputEm(ptr noundef nonnull align 8 dereferenceable(8) %0, ptr noundef nonnull align 8 dereferenceable(48) %1, i64 noundef %2) unnamed_addr #3 personality ptr @__gxx_personality_v0 {
  %4 = alloca %"class.pxrInternal_v0_24__pxrReserved__::SdfPrimSpec", align 8
  %5 = alloca %"class.pxrInternal_v0_24__pxrReserved__::SdfHandle.238", align 8
  %6 = alloca %"class.std::__cxx11::basic_string", align 8
  call void @_ZNK32pxrInternal_v0_24__pxrReserved__14SdfVariantSpec11GetPrimSpecEv(ptr dead_on_unwind nonnull writable sret(%"class.pxrInternal_v0_24__pxrReserved__::SdfHandle.238") align 8 %5, ptr noundef nonnull align 8 dereferenceable(8) %0)
  %7 = load ptr, ptr %5, align 8
  store ptr %7, ptr %4, align 8
  %.not.i.i.i.i = icmp eq ptr %7, null
  br i1 %.not.i.i.i.i, label %_ZN32pxrInternal_v0_24__pxrReserved__11SdfPrimSpecC2ERKS0_.exit, label %8

8:                                                ; preds = %3
  %9 = atomicrmw add ptr %7, i32 1 seq_cst, align 4
  br label %_ZN32pxrInternal_v0_24__pxrReserved__11SdfPrimSpecC2ERKS0_.exit

_ZN32pxrInternal_v0_24__pxrReserved__11SdfPrimSpecC2ERKS0_.exit: ; preds = %8, %3
  call void @_ZN32pxrInternal_v0_24__pxrReserved__7SdfSpecD2Ev(ptr noundef nonnull align 8 dereferenceable(8) %5) #20
  invoke void @_ZNK32pxrInternal_v0_24__pxrReserved__14SdfVariantSpec7GetNameB5cxx11Ev(ptr dead_on_unwind nonnull writable sret(%"class.std::__cxx11::basic_string") align 8 %6, ptr noundef nonnull align 8 dereferenceable(8) %0)
          to label %10 unwind label %17

10:                                               ; preds = %_ZN32pxrInternal_v0_24__pxrReserved__11SdfPrimSpecC2ERKS0_.exit
  invoke void @_ZN32pxrInternal_v0_24__pxrReserved__17Sdf_FileIOUtility17WriteQuotedStringERNS_14Sdf_TextOutputEmRKNSt7__cxx1112basic_stringIcSt11char_traitsIcESaIcEEE(ptr noundef nonnull align 8 dereferenceable(48) %1, i64 noundef %2, ptr noundef nonnull align 8 dereferenceable(32) %6)
          to label %11 unwind label %19

11:                                               ; preds = %10
  call void @_ZNSt7__cxx1112basic_stringIcSt11char_traitsIcESaIcEED1Ev(ptr noundef nonnull align 8 dereferenceable(32) %6) #20
  invoke fastcc void @_ZN32pxrInternal_v0_24__pxrReserved__L21Sdf_WritePrimMetadataERKNS_11SdfPrimSpecERNS_14Sdf_TextOutputEm(ptr noundef nonnull align 8 dereferenceable(8) %4, ptr noundef nonnull align 8 dereferenceable(48) %1, i64 noundef %2)
          to label %12 unwind label %17

12:                                               ; preds = %11
  invoke void (ptr, i64, ptr, ...) @_ZN32pxrInternal_v0_24__pxrReserved__17Sdf_FileIOUtility5WriteERNS_14Sdf_TextOutputEmPKcz(ptr noundef nonnull align 8 dereferenceable(48) %1, i64 noundef 0, ptr noundef nonnull @.str.80)
          to label %13 unwind label %17

13:                                               ; preds = %12
  invoke fastcc void @_ZN32pxrInternal_v0_24__pxrReserved__L17Sdf_WritePrimBodyERKNS_11SdfPrimSpecERNS_14Sdf_TextOutputEm(ptr noundef nonnull align 8 dereferenceable(8) %4, ptr noundef nonnull align 8 dereferenceable(48) %1, i64 noundef %2)
          to label %14 unwind label %17

14:                                               ; preds = %13
  invoke void (ptr, i64, ptr, ...) @_ZN32pxrInternal_v0_24__pxrReserved__17Sdf_FileIOUtility5WriteERNS_14Sdf_TextOutputEmPKcz(ptr noundef nonnull align 8 dereferenceable(48) %1, i64 noundef 0, ptr noundef nonnull @.str.2)
          to label %15 unwind label %17

15:                                               ; preds = %14
  invoke void (ptr, i64, ptr, ...) @_ZN32pxrInternal_v0_24__pxrReserved__17Sdf_FileIOUtility5WriteERNS_14Sdf_TextOutputEmPKcz(ptr noundef nonnull align 8 dereferenceable(48) %1, i64 noundef %2, ptr noundef nonnull @.str.4)
          to label %16 unwind label %17

16:                                               ; preds = %15
  call void @_ZN32pxrInternal_v0_24__pxrReserved__7SdfSpecD2Ev(ptr noundef nonnull align 8 dereferenceable(8) %4) #20
  ret void

17:                                               ; preds = %13, %11, %15, %14, %12, %_ZN32pxrInternal_v0_24__pxrReserved__11SdfPrimSpecC2ERKS0_.exit
  %18 = landingpad { ptr, i32 }
          cleanup
  br label %21

19:                                               ; preds = %10
  %20 = landingpad { ptr, i32 }
          cleanup
  call void @_ZNSt7__cxx1112basic_stringIcSt11char_traitsIcESaIcEED1Ev(ptr noundef nonnull align 8 dereferenceable(32) %6) #20
  br label %21

21:                                               ; preds = %19, %17
  %.pn = phi { ptr, i32 } [ %18, %17 ], [ %20, %19 ]
  call void @_ZN32pxrInternal_v0_24__pxrReserved__7SdfSpecD2Ev(ptr noundef nonnull align 8 dereferenceable(8) %4) #20
  resume { ptr, i32 } %.pn
}